; Function Attrs: nounwind uwtable
define internal ptr @H5T__copy_all(ptr noundef %0) #0 {
  %2 = tail call ptr @H5T_copy(ptr noundef %0, i32 noundef 1)
  %3 = icmp eq ptr %2, null
  br i1 %3, label %4, label %8

4:                                                ; preds = %1
  %5 = load i64, ptr @H5E_DATATYPE_g, align 8
  %6 = load i64, ptr @H5E_CANTCOPY_g, align 8
  %7 = tail call i32 (ptr, ptr, i32, i64, i64, ptr, ...) @H5E_printf_stack(ptr noundef nonnull @.str.2, ptr noundef nonnull @__func__.H5T__copy_all, i32 noundef 3574, i64 noundef %5, i64 noundef %6, ptr noundef nonnull @.str.349) #17
  br label %8

8:                                                ; preds = %1, %4
  ret ptr %2
}